
Merging program properties

Removed property 0xc0000002 to merge build/ddebug.o (0x3) and /tmp/ccdu0LWT.o (not found)
Removed property 0xc0000002 to merge build/ddebug.o (not found) and build/main.o (0x3)
Removed property 0xc0000002 to merge build/ddebug.o (not found) and build/ps4.o (0x3)

Discarded input sections

 .data          0x0000000000000000        0x0 /tmp/ccdu0LWT.o
 .bss           0x0000000000000000        0x0 /tmp/ccdu0LWT.o
 .data          0x0000000000000000        0x0 /tmp/ccHCHoM8.o
 .bss           0x0000000000000000        0x0 /tmp/ccHCHoM8.o
 .text          0x0000000000000000        0x0 build/ddebug.o
 .data          0x0000000000000000        0x0 build/ddebug.o
 .bss           0x0000000000000000        0x0 build/ddebug.o
 .comment       0x0000000000000000       0x27 build/ddebug.o
 .note.GNU-stack
                0x0000000000000000        0x0 build/ddebug.o
 .note.gnu.property
                0x0000000000000000       0x20 build/ddebug.o
 .text          0x0000000000000000        0x0 build/embed.o
 .data          0x0000000000000000        0x0 build/embed.o
 .bss           0x0000000000000000        0x0 build/embed.o
 .text          0x0000000000000000        0x0 build/main.o
 .data          0x0000000000000000        0x0 build/main.o
 .bss           0x0000000000000000        0x0 build/main.o
 .bss.sock      0x0000000000000000        0x4 build/main.o
 .comment       0x0000000000000000       0x27 build/main.o
 .note.GNU-stack
                0x0000000000000000        0x0 build/main.o
 .note.gnu.property
                0x0000000000000000       0x20 build/main.o
 .eh_frame      0x0000000000000000       0xd0 build/main.o
 .data          0x0000000000000000        0x0 build/ps4.o
 .bss           0x0000000000000000        0x0 build/ps4.o
 .comment       0x0000000000000000       0x27 build/ps4.o
 .note.GNU-stack
                0x0000000000000000        0x0 build/ps4.o
 .note.gnu.property
                0x0000000000000000       0x20 build/ps4.o
 .eh_frame      0x0000000000000000       0x88 build/ps4.o

Memory Configuration

Name             Origin             Length             Attributes
*default*        0x0000000000000000 0xffffffffffffffff

Linker script and memory map

LOAD /tmp/ccdu0LWT.o
LOAD /tmp/ccHCHoM8.o
LOAD build/ddebug.o
LOAD build/embed.o
LOAD build/main.o
LOAD build/ps4.o

.text           0x0000000000000000      0x41a
 *(.text.start)
 *(.text*)
 .text          0x0000000000000000        0x5 /tmp/ccdu0LWT.o
                0x0000000000000000                _start
 .text          0x0000000000000005       0x2e /tmp/ccHCHoM8.o
                0x0000000000000005                syscall
                0x0000000000000008                syscall_macro
 .text.install_payload
                0x0000000000000033      0x163 build/main.o
                0x0000000000000033                install_payload
 .text.notify   0x0000000000000196       0x3b build/main.o
                0x0000000000000196                notify
 .text._main    0x00000000000001d1       0xe7 build/main.o
                0x00000000000001d1                _main
 .text          0x00000000000002b8       0x30 build/ps4.o
                0x00000000000002b8                unlink
                0x00000000000002c4                kexec
                0x00000000000002d0                mkdir
                0x00000000000002dc                getFunctionAddressByName
 .text.loadModule
                0x00000000000002e8       0x1e build/ps4.o
                0x00000000000002e8                loadModule
 .text.initKernel
                0x0000000000000306       0x80 build/ps4.o
                0x0000000000000306                initKernel
 .text.initLibc
                0x0000000000000386       0x60 build/ps4.o
                0x0000000000000386                initLibc
 .text.initSysUtil
                0x00000000000003e6       0x34 build/ps4.o
                0x00000000000003e6                initSysUtil

.plt            0x0000000000000420        0x0
 .plt           0x0000000000000420        0x0 /tmp/ccdu0LWT.o

.plt.got        0x0000000000000420        0x0
 .plt.got       0x0000000000000420        0x0 /tmp/ccdu0LWT.o

.rodata         0x000000000000041c     0x1cb3
 *(.rodata)
 .rodata        0x000000000000041c     0x1b6c build/embed.o
                0x000000000000041c                kpayload
                0x0000000000001f84                kpayload_size
 *(.rodata*)
 .rodata.notify.str1.1
                0x0000000000001f88      0x147 build/main.o
                                          0x3 (size before relaxing)
 .rodata._main.str1.1
                0x00000000000020cf       0x71 build/main.o
 .rodata.initKernel.str1.1
                0x00000000000020cf       0x56 build/ps4.o
 .rodata.initLibc.str1.1
                0x00000000000020cf       0x2e build/ps4.o
 .rodata.initSysUtil.str1.1
                0x00000000000020cf       0x4f build/ps4.o

.gnu.version_d  0x00000000000020d0        0x0
 .gnu.version_d
                0x00000000000020d0        0x0 /tmp/ccdu0LWT.o

.gnu.version    0x00000000000020d0        0x0
 .gnu.version   0x00000000000020d0        0x0 /tmp/ccdu0LWT.o

.gnu.version_r  0x00000000000020d0        0x0
 .gnu.version_r
                0x00000000000020d0        0x0 /tmp/ccdu0LWT.o

.dynsym         0x00000000000020d0       0x18
 .dynsym        0x00000000000020d0       0x18 /tmp/ccdu0LWT.o

.dynstr         0x00000000000020e8        0x1
 .dynstr        0x00000000000020e8        0x1 /tmp/ccdu0LWT.o

.gnu.hash       0x00000000000020f0       0x1c
 .gnu.hash      0x00000000000020f0       0x1c /tmp/ccdu0LWT.o

.sframe         0x000000000000210c        0x0
 .sframe        0x000000000000210c        0x0 /tmp/ccdu0LWT.o

.eh_frame_hdr   0x000000000000210c        0x0
 .eh_frame_hdr  0x000000000000210c        0x0 build/main.o

.rela.dyn       0x0000000000002110        0x0
 .rela.plt      0x0000000000002110        0x0 /tmp/ccdu0LWT.o
 .rela.got      0x0000000000002110        0x0 /tmp/ccdu0LWT.o
 .rela.bss      0x0000000000002110        0x0 /tmp/ccdu0LWT.o
 .rela.data.rel.ro
                0x0000000000002110        0x0 /tmp/ccdu0LWT.o
 .rela.ifunc    0x0000000000002110        0x0 /tmp/ccdu0LWT.o

.data
 *(.data)

.dynamic        0x0000000000002110       0xe0
 .dynamic       0x0000000000002110       0xe0 /tmp/ccdu0LWT.o
                0x0000000000002110                _DYNAMIC

.got            0x00000000000021f0        0x0
 .got           0x00000000000021f0        0x0 /tmp/ccdu0LWT.o

.got.plt        0x00000000000021f0        0x0
 .got.plt       0x00000000000021f0        0x0 /tmp/ccdu0LWT.o

.data.rel.ro    0x00000000000021f0        0x0
 .data.rel.ro   0x00000000000021f0        0x0 /tmp/ccdu0LWT.o

.bss
 *(.bss)

.dynbss         0x00000000000021f0        0x0
 .dynbss        0x00000000000021f0        0x0 /tmp/ccdu0LWT.o

.bss.sceSysUtilSendSystemNotificationWithText
                0x00000000000021f0        0x8
 .bss.sceSysUtilSendSystemNotificationWithText
                0x00000000000021f0        0x8 build/ps4.o
                0x00000000000021f0                sceSysUtilSendSystemNotificationWithText

.bss.sprintf    0x00000000000021f8        0x8
 .bss.sprintf   0x00000000000021f8        0x8 build/ps4.o
                0x00000000000021f8                sprintf

.bss.memcpy     0x0000000000002200        0x8
 .bss.memcpy    0x0000000000002200        0x8 build/ps4.o
                0x0000000000002200                memcpy

.bss.memset     0x0000000000002208        0x8
 .bss.memset    0x0000000000002208        0x8 build/ps4.o
                0x0000000000002208                memset

.bss.sceKernelLoadStartModule
                0x0000000000002210        0x8
 .bss.sceKernelLoadStartModule
                0x0000000000002210        0x8 build/ps4.o
                0x0000000000002210                sceKernelLoadStartModule

.bss.__error    0x0000000000002218        0x8
 .bss.__error   0x0000000000002218        0x8 build/ps4.o
                0x0000000000002218                __error

/DISCARD/
 *(.comment)
 *(.note.GNU-stack)
 *(.eh_frame)
 *(.interp)
OUTPUT(temp.t elf64-x86-64)
